; Function Attrs: mustprogress uwtable
define void @_ZN7rocksdb13TraceAnalyzer11PutEntityCFEjRKNS_5SliceES3_(ptr noalias sret(%"class.rocksdb::Status") align 8 %agg.result, ptr noundef nonnull align 8 dereferenceable(1484) %this, i32 noundef %column_family_id, ptr nocapture noundef nonnull readonly align 8 dereferenceable(16) %key, ptr nocapture noundef nonnull readonly align 8 dereferenceable(16) %value) unnamed_addr #2 align 2 {
entry:
  %write_batch_ts_ = getelementptr inbounds i8, ptr %this, i64 1120
  %0 = load i64, ptr %write_batch_ts_, align 8
  %size_.i = getelementptr inbounds i8, ptr %value, i64 8
  %1 = load i64, ptr %size_.i, align 8
  tail call void @_ZN7rocksdb13TraceAnalyzer20OutputAnalysisResultENS_18TraceOperationTypeEmjRKNS_5SliceEm(ptr sret(%"class.rocksdb::Status") align 8 %agg.result, ptr noundef nonnull align 8 dereferenceable(1484) %this, i32 noundef 9, i64 noundef %0, i32 noundef %column_family_id, ptr noundef nonnull align 8 dereferenceable(16) %key, i64 noundef %1)
  ret void
}